; Function Attrs: nounwind sspstrong uwtable
define dso_local void @bdrv_enable_dirty_bitmap(ptr noundef captures(none) initializes((48, 49)) %bitmap) local_unnamed_addr #0 {
entry:
  %0 = load ptr, ptr %bitmap, align 8
  %1 = load atomic i64, ptr @qemu_mutex_lock_func monotonic, align 8
  %2 = inttoptr i64 %1 to ptr
  %dirty_bitmap_mutex.i = getelementptr inbounds nuw i8, ptr %0, i64 16904
  tail call void %2(ptr noundef nonnull %dirty_bitmap_mutex.i, ptr noundef nonnull @.str.1, i32 noundef 66) #14
  %disabled.i = getelementptr inbounds nuw i8, ptr %bitmap, i64 48
  store i8 0, ptr %disabled.i, align 8
  %3 = load ptr, ptr %bitmap, align 8
  %dirty_bitmap_mutex.i3 = getelementptr inbounds nuw i8, ptr %3, i64 16904
  tail call void @qemu_mutex_unlock_impl(ptr noundef nonnull %dirty_bitmap_mutex.i3, ptr noundef nonnull @.str.1, i32 noundef 71) #14
  ret void
}